target datalayout = "e-m:e-p270:32:32-p271:32:32-p272:64:64-i64:64-i128:128-f80:128-n8:16:32:64-S128"
target triple = "x86_64-pc-linux-gnu"

; Function Attrs: nounwind uwtable
define ptr @Io_ReadCreateConst(ptr noundef %0, ptr noundef %1, i32 noundef %2) #0 {
  %4 = alloca ptr, align 8
  %5 = alloca ptr, align 8
  %6 = alloca i32, align 4
  %7 = alloca ptr, align 8
  %8 = alloca ptr, align 8
  store ptr %0, ptr %4, align 8
  store ptr %1, ptr %5, align 8
  store i32 %2, ptr %6, align 4
  %9 = load i32, ptr %6, align 4
  %10 = icmp ne i32 %9, 0
  br i1 %10, label %11, label %14

11:                                               ; preds = %3
  %12 = load ptr, ptr %4, align 8
  %13 = call ptr @Abc_NtkCreateNodeConst1(ptr noundef %12)
  br label %17

14:                                               ; preds = %3
  %15 = load ptr, ptr %4, align 8
  %16 = call ptr @Abc_NtkCreateNodeConst0(ptr noundef %15)
  br label %17

17:                                               ; preds = %14, %11
  %18 = phi ptr [ %13, %11 ], [ %16, %14 ]
  store ptr %18, ptr %8, align 8
  %19 = load ptr, ptr %4, align 8
  %20 = load ptr, ptr %5, align 8
  %21 = call ptr @Abc_NtkFindNet(ptr noundef %19, ptr noundef %20)
  store ptr %21, ptr %7, align 8
  %22 = load ptr, ptr %7, align 8
  %23 = load ptr, ptr %8, align 8
  call void @Abc_ObjAddFanin(ptr noundef %22, ptr noundef %23)
  %24 = load ptr, ptr %8, align 8
  ret ptr %24
}