; Function Attrs: nounwind uwtable
define ptr @Io_ReadCreateConst(ptr noundef %0, ptr noundef %1, i32 noundef %2) local_unnamed_addr #0 {
  %.not = icmp eq i32 %2, 0
  br i1 %.not, label %6, label %4

4:                                                ; preds = %3
  %5 = tail call ptr @Abc_NtkCreateNodeConst1(ptr noundef %0) #14
  br label %8

6:                                                ; preds = %3
  %7 = tail call ptr @Abc_NtkCreateNodeConst0(ptr noundef %0) #14
  br label %8

8:                                                ; preds = %6, %4
  %9 = phi ptr [ %5, %4 ], [ %7, %6 ]
  %10 = tail call ptr @Abc_NtkFindNet(ptr noundef %0, ptr noundef %1) #14
  tail call void @Abc_ObjAddFanin(ptr noundef %10, ptr noundef %9) #14
  ret ptr %9
}